; Function Attrs: nounwind uwtable
define internal void @set_legacy_nid(ptr noundef %0, ptr noundef captures(none) %1) #0 {
  %3 = tail call ptr @OBJ_NAME_get(ptr noundef %0, i32 noundef 1) #8
  %4 = load i32, ptr %1, align 4, !tbaa !52
  %5 = icmp eq i32 %4, -1
  %6 = icmp eq ptr %3, null
  %or.cond12 = select i1 %5, i1 true, i1 %6
  br i1 %or.cond12, label %9, label %.sink.split

.sink.split:                                      ; preds = %2
  %7 = tail call i32 @EVP_MD_get_type(ptr noundef nonnull %3) #8
  %8 = load i32, ptr %1, align 4, !tbaa !52
  %.not = icmp eq i32 %8, 0
  %.not11 = icmp eq i32 %8, %7
  %or.cond = select i1 %.not, i1 true, i1 %.not11
  %. = select i1 %or.cond, i32 %7, i32 -1
  store i32 %., ptr %1, align 4, !tbaa !52
  br label %9

9:                                                ; preds = %.sink.split, %2
  ret void
}